; Function Attrs: mustprogress uwtable
define hidden noundef zeroext i1 @_ZN5model8is_falseERK10ref_vectorI4expr11ast_managerE(ptr noundef nonnull align 8 dereferenceable(160) %this, ptr nocapture noundef nonnull readonly align 8 dereferenceable(16) %ts) local_unnamed_addr #3 align 2 personality ptr @__gxx_personality_v0 {
entry:
  %ref.tmp.i = alloca %class.obj_ref, align 8
  %m_nodes.i = getelementptr inbounds i8, ptr %ts, i64 8
  %0 = load ptr, ptr %m_nodes.i, align 8
  %cmp.i.i.i = icmp eq ptr %0, null
  br i1 %cmp.i.i.i, label %return, label %_ZNK15ref_vector_coreI4expr19ref_manager_wrapperIS0_11ast_managerEE3endEv.exit

_ZNK15ref_vector_coreI4expr19ref_manager_wrapperIS0_11ast_managerEE3endEv.exit: ; preds = %entry
  %arrayidx.i.i.i = getelementptr inbounds i8, ptr %0, i64 -4
  %1 = load i32, ptr %arrayidx.i.i.i, align 4
  %2 = zext i32 %1 to i64
  %add.ptr.i = getelementptr inbounds ptr, ptr %0, i64 %2
  %cmp.not5.not = icmp eq i32 %1, 0
  br i1 %cmp.not5.not, label %return, label %for.body.lr.ph

for.body.lr.ph:                                   ; preds = %_ZNK15ref_vector_coreI4expr19ref_manager_wrapperIS0_11ast_managerEE3endEv.exit
  %m.i = getelementptr inbounds i8, ptr %this, i64 8
  %m_mev.i.i = getelementptr inbounds i8, ptr %this, i64 128
  %m_manager.i.i.i = getelementptr inbounds i8, ptr %ref.tmp.i, i64 8
  br label %for.body

for.body:                                         ; preds = %_ZN5model8is_falseEP4expr.exit, %for.body.lr.ph
  %__begin1.06 = phi ptr [ %0, %for.body.lr.ph ], [ %incdec.ptr, %_ZN5model8is_falseEP4expr.exit ]
  %3 = load ptr, ptr %__begin1.06, align 8
  call void @llvm.lifetime.start.p0(i64 16, ptr nonnull %ref.tmp.i)
  %4 = load ptr, ptr %m.i, align 8
  call void @_ZN15model_evaluatorclEP4expr(ptr nonnull sret(%class.obj_ref) align 8 %ref.tmp.i, ptr noundef nonnull align 8 dereferenceable(8) %m_mev.i.i, ptr noundef %3)
  %5 = load ptr, ptr %ref.tmp.i, align 8
  %m_false.i.i = getelementptr inbounds i8, ptr %4, i64 864
  %6 = load ptr, ptr %m_false.i.i, align 8
  %tobool.not.i.i.i = icmp eq ptr %5, null
  br i1 %tobool.not.i.i.i, label %_ZN5model8is_falseEP4expr.exit, label %if.then.i.i.i.i

if.then.i.i.i.i:                                  ; preds = %for.body
  %7 = load ptr, ptr %m_manager.i.i.i, align 8
  %m_ref_count.i.i.i.i.i = getelementptr inbounds i8, ptr %5, i64 8
  %8 = load i32, ptr %m_ref_count.i.i.i.i.i, align 4
  %dec.i.i.i.i.i = add i32 %8, -1
  store i32 %dec.i.i.i.i.i, ptr %m_ref_count.i.i.i.i.i, align 4
  %cmp.i.i.i.i = icmp eq i32 %dec.i.i.i.i.i, 0
  br i1 %cmp.i.i.i.i, label %if.then2.i.i.i.i, label %_ZN5model8is_falseEP4expr.exit

if.then2.i.i.i.i:                                 ; preds = %if.then.i.i.i.i
  invoke void @_ZN11ast_manager11delete_nodeEP3ast(ptr noundef nonnull align 8 dereferenceable(976) %7, ptr noundef nonnull %5)
          to label %_ZN5model8is_falseEP4expr.exit unwind label %terminate.lpad.i.i

terminate.lpad.i.i:                               ; preds = %if.then2.i.i.i.i
  %9 = landingpad { ptr, i32 }
          catch ptr null
  %10 = extractvalue { ptr, i32 } %9, 0
  call void @__clang_call_terminate(ptr %10) #20
  unreachable

_ZN5model8is_falseEP4expr.exit:                   ; preds = %for.body, %if.then.i.i.i.i, %if.then2.i.i.i.i
  %cmp.i.i = icmp eq ptr %6, %5
  call void @llvm.lifetime.end.p0(i64 16, ptr nonnull %ref.tmp.i)
  %incdec.ptr = getelementptr inbounds i8, ptr %__begin1.06, i64 8
  %cmp.not.not = icmp eq ptr %incdec.ptr, %add.ptr.i
  %or.cond = select i1 %cmp.i.i, i1 true, i1 %cmp.not.not
  br i1 %or.cond, label %return, label %for.body

return:                                           ; preds = %_ZN5model8is_falseEP4expr.exit, %entry, %_ZNK15ref_vector_coreI4expr19ref_manager_wrapperIS0_11ast_managerEE3endEv.exit
  %cmp.not.lcssa = phi i1 [ false, %_ZNK15ref_vector_coreI4expr19ref_manager_wrapperIS0_11ast_managerEE3endEv.exit ], [ false, %entry ], [ %cmp.i.i, %_ZN5model8is_falseEP4expr.exit ]
  ret i1 %cmp.not.lcssa
}